; Function Attrs: mustprogress nounwind uwtable
define dso_local noundef zeroext i1 @_ZN5clang5arcmt20applyTransformationsERNS_18CompilerInvocationERKNS_17FrontendInputFileESt10shared_ptrINS_22PCHContainerOperationsEEPNS_18DiagnosticConsumerE(ptr noundef nonnull align 8 dereferenceable(192) %0, ptr noundef nonnull align 8 dereferenceable(77) %1, ptr nocapture noundef readonly %2, ptr noundef %3) local_unnamed_addr #0 {
  %5 = alloca %"class.std::shared_ptr", align 8
  %6 = alloca %"class.llvm::StringRef", align 8
  %7 = load ptr, ptr %2, align 8
  store ptr %7, ptr %5, align 8
  %8 = getelementptr inbounds nuw i8, ptr %5, i64 8
  %9 = getelementptr inbounds nuw i8, ptr %2, i64 8
  %10 = load ptr, ptr %9, align 8
  store ptr %10, ptr %8, align 8
  %.not.i.i.i = icmp eq ptr %10, null
  br i1 %.not.i.i.i, label %_ZNSt10shared_ptrIN5clang22PCHContainerOperationsEEC2ERKS2_.exit, label %11

11:                                               ; preds = %4
  %12 = getelementptr inbounds nuw i8, ptr %10, i64 8
  %13 = load i8, ptr @__libc_single_threaded, align 1
  %.not.i.i.i.i = icmp eq i8 %13, 0
  br i1 %.not.i.i.i.i, label %17, label %14

14:                                               ; preds = %11
  %15 = load i32, ptr %12, align 4
  %16 = add nsw i32 %15, 1
  store i32 %16, ptr %12, align 4
  br label %_ZNSt10shared_ptrIN5clang22PCHContainerOperationsEEC2ERKS2_.exit

17:                                               ; preds = %11
  %18 = atomicrmw volatile add ptr %12, i32 1 acq_rel, align 4
  %.pr.pre = load ptr, ptr %8, align 8
  br label %_ZNSt10shared_ptrIN5clang22PCHContainerOperationsEEC2ERKS2_.exit

_ZNSt10shared_ptrIN5clang22PCHContainerOperationsEEC2ERKS2_.exit: ; preds = %14, %17, %4
  %19 = phi ptr [ null, %4 ], [ %.pr.pre, %17 ], [ %10, %14 ]
  call void @llvm.memset.p0.i64(ptr noundef nonnull align 8 dereferenceable(16) %6, i8 0, i64 16, i1 false)
  %20 = call fastcc noundef zeroext i1 @_ZL15applyTransformsRN5clang18CompilerInvocationERKNS_17FrontendInputFileESt10shared_ptrINS_22PCHContainerOperationsEEPNS_18DiagnosticConsumerEN4llvm9StringRefEbSB_(ptr noundef nonnull align 8 dereferenceable(192) %0, ptr noundef nonnull align 8 dereferenceable(77) %1, ptr noundef nonnull %5, ptr noundef %3, ptr null, i64 0, i1 noundef zeroext false, ptr noundef nonnull byval(%"class.llvm::StringRef") align 8 %6)
  %.not.i.i.i3 = icmp eq ptr %19, null
  br i1 %.not.i.i.i3, label %_ZNSt10shared_ptrIN5clang22PCHContainerOperationsEED2Ev.exit, label %21

21:                                               ; preds = %_ZNSt10shared_ptrIN5clang22PCHContainerOperationsEEC2ERKS2_.exit
  %22 = getelementptr inbounds nuw i8, ptr %19, i64 8
  %23 = load atomic i64, ptr %22 acquire, align 8
  %24 = icmp eq i64 %23, 4294967297
  %25 = trunc i64 %23 to i32
  br i1 %24, label %26, label %31

26:                                               ; preds = %21
  store i32 0, ptr %22, align 8
  %27 = getelementptr inbounds nuw i8, ptr %19, i64 12
  store i32 0, ptr %27, align 4
  %28 = load ptr, ptr %19, align 8
  %29 = getelementptr inbounds i8, ptr %28, i64 16
  %30 = load ptr, ptr %29, align 8
  tail call void %30(ptr noundef nonnull align 8 dereferenceable(16) %19) #16
  br label %_ZNSt16_Sp_counted_baseILN9__gnu_cxx12_Lock_policyE2EE24_M_release_last_use_coldEv.exit.sink.split.i.i.i.i

31:                                               ; preds = %21
  %32 = load i8, ptr @__libc_single_threaded, align 1
  %.not.i.i.i.i4 = icmp eq i8 %32, 0
  br i1 %.not.i.i.i.i4, label %35, label %33

33:                                               ; preds = %31
  %34 = add nsw i32 %25, -1
  store i32 %34, ptr %22, align 4
  br label %37

35:                                               ; preds = %31
  %36 = atomicrmw volatile add ptr %22, i32 -1 acq_rel, align 4
  br label %37

37:                                               ; preds = %35, %33
  %.0.i.i.i.i = phi i32 [ %25, %33 ], [ %36, %35 ]
  %38 = icmp eq i32 %.0.i.i.i.i, 1
  br i1 %38, label %39, label %_ZNSt10shared_ptrIN5clang22PCHContainerOperationsEED2Ev.exit

39:                                               ; preds = %37
  %40 = load ptr, ptr %19, align 8
  %41 = getelementptr inbounds i8, ptr %40, i64 16
  %42 = load ptr, ptr %41, align 8
  tail call void %42(ptr noundef nonnull align 8 dereferenceable(16) %19) #16
  %43 = getelementptr inbounds nuw i8, ptr %19, i64 12
  %44 = load i8, ptr @__libc_single_threaded, align 1
  %.not.i.i.i.i.i.i = icmp eq i8 %44, 0
  br i1 %.not.i.i.i.i.i.i, label %48, label %45

45:                                               ; preds = %39
  %46 = load i32, ptr %43, align 4
  %47 = add nsw i32 %46, -1
  store i32 %47, ptr %43, align 4
  br label %50

48:                                               ; preds = %39
  %49 = atomicrmw volatile add ptr %43, i32 -1 acq_rel, align 4
  br label %50

50:                                               ; preds = %48, %45
  %.0.i.i.i.i.i.i = phi i32 [ %46, %45 ], [ %49, %48 ]
  %51 = icmp eq i32 %.0.i.i.i.i.i.i, 1
  br i1 %51, label %_ZNSt16_Sp_counted_baseILN9__gnu_cxx12_Lock_policyE2EE24_M_release_last_use_coldEv.exit.sink.split.i.i.i.i, label %_ZNSt10shared_ptrIN5clang22PCHContainerOperationsEED2Ev.exit

_ZNSt16_Sp_counted_baseILN9__gnu_cxx12_Lock_policyE2EE24_M_release_last_use_coldEv.exit.sink.split.i.i.i.i: ; preds = %50, %26
  %52 = load ptr, ptr %19, align 8
  %53 = getelementptr inbounds i8, ptr %52, i64 24
  %54 = load ptr, ptr %53, align 8
  tail call void %54(ptr noundef nonnull align 8 dereferenceable(16) %19) #16
  br label %_ZNSt10shared_ptrIN5clang22PCHContainerOperationsEED2Ev.exit

_ZNSt10shared_ptrIN5clang22PCHContainerOperationsEED2Ev.exit: ; preds = %_ZNSt10shared_ptrIN5clang22PCHContainerOperationsEEC2ERKS2_.exit, %37, %50, %_ZNSt16_Sp_counted_baseILN9__gnu_cxx12_Lock_policyE2EE24_M_release_last_use_coldEv.exit.sink.split.i.i.i.i
  ret i1 %20
}